; Function Attrs: nounwind uwtable
define hidden i32 @_ir_PHI_N(ptr nocapture noundef %0, i32 noundef %1, i32 noundef %2, ptr nocapture noundef readonly %3) local_unnamed_addr #0 {
  %5 = icmp eq i32 %2, 1
  %6 = load i32, ptr %3, align 4
  br i1 %5, label %.loopexit, label %7

7:                                                ; preds = %4
  %.not = icmp eq i32 %6, 0
  br i1 %.not, label %14, label %.preheader

.preheader:                                       ; preds = %7
  %8 = icmp sgt i32 %2, 1
  br i1 %8, label %.lr.ph.preheader, label %._crit_edge

.lr.ph.preheader:                                 ; preds = %.preheader
  %wide.trip.count = zext nneg i32 %2 to i64
  br label %.lr.ph

.lr.ph:                                           ; preds = %.lr.ph.preheader, %11
  %indvars.iv = phi i64 [ 1, %.lr.ph.preheader ], [ %indvars.iv.next, %11 ]
  %9 = getelementptr inbounds i32, ptr %3, i64 %indvars.iv
  %10 = load i32, ptr %9, align 4
  %.not31 = icmp eq i32 %10, %6
  br i1 %.not31, label %11, label %._crit_edge.loopexit

11:                                               ; preds = %.lr.ph
  %indvars.iv.next = add nuw nsw i64 %indvars.iv, 1
  %exitcond.not = icmp eq i64 %indvars.iv.next, %wide.trip.count
  br i1 %exitcond.not, label %.loopexit, label %.lr.ph

._crit_edge.loopexit:                             ; preds = %.lr.ph
  %12 = trunc i64 %indvars.iv to i32
  br label %._crit_edge

._crit_edge:                                      ; preds = %._crit_edge.loopexit, %.preheader
  %.0.lcssa = phi i32 [ 1, %.preheader ], [ %12, %._crit_edge.loopexit ]
  %13 = icmp eq i32 %.0.lcssa, %2
  br i1 %13, label %.loopexit, label %14

14:                                               ; preds = %._crit_edge, %7
  %15 = shl i32 %1, 8
  %16 = and i32 %15, 16776960
  %17 = add nsw i32 %2, 1
  %18 = getelementptr inbounds i8, ptr %0, i64 8
  %19 = load i32, ptr %18, align 8
  %20 = sdiv i32 %17, 4
  %21 = add i32 %19, %20
  %22 = getelementptr inbounds i8, ptr %0, i64 12
  %23 = load i32, ptr %22, align 4
  %.not22.i = icmp slt i32 %21, %23
  %.pre30.i = load ptr, ptr %0, align 8
  br i1 %.not22.i, label %._crit_edge.i, label %.lr.ph.i

.lr.ph.i:                                         ; preds = %14
  %24 = getelementptr inbounds i8, ptr %0, i64 20
  %.pre29.i = load i32, ptr %24, align 4
  br label %25

25:                                               ; preds = %25, %.lr.ph.i
  %26 = phi i32 [ %.pre29.i, %.lr.ph.i ], [ %40, %25 ]
  %27 = phi ptr [ %.pre30.i, %.lr.ph.i ], [ %42, %25 ]
  %28 = phi i32 [ %23, %.lr.ph.i ], [ %43, %25 ]
  %29 = icmp slt i32 %28, 4096
  %30 = shl nsw i32 %28, 1
  %31 = icmp ult i32 %28, 8192
  %32 = add nuw nsw i32 %28, 4096
  %spec.select.i.i = select i1 %31, i32 8192, i32 %32
  %.sink.i.i = select i1 %29, i32 %30, i32 %spec.select.i.i
  store i32 %.sink.i.i, ptr %22, align 4
  %33 = sext i32 %26 to i64
  %34 = sub nsw i64 0, %33
  %35 = getelementptr inbounds %struct._ir_insn, ptr %27, i64 %34
  %36 = add nsw i32 %.sink.i.i, %26
  %37 = sext i32 %36 to i64
  %38 = shl nsw i64 %37, 4
  %39 = tail call ptr @_erealloc(ptr noundef %35, i64 noundef %38) #24
  %40 = load i32, ptr %24, align 4
  %41 = sext i32 %40 to i64
  %42 = getelementptr inbounds %struct._ir_insn, ptr %39, i64 %41
  store ptr %42, ptr %0, align 8
  %43 = load i32, ptr %22, align 4
  %.not.i = icmp slt i32 %21, %43
  br i1 %.not.i, label %._crit_edge.i, label %25

._crit_edge.i:                                    ; preds = %25, %14
  %44 = phi ptr [ %.pre30.i, %14 ], [ %42, %25 ]
  %45 = add nsw i32 %21, 1
  store i32 %45, ptr %18, align 8
  %46 = sext i32 %19 to i64
  %47 = getelementptr inbounds %struct._ir_insn, ptr %44, i64 %46
  %48 = shl i32 %17, 16
  %49 = or i32 %16, %48
  %50 = or disjoint i32 %49, 59
  store i32 %50, ptr %47, align 8
  %.not2123.i = icmp slt i32 %2, -1
  br i1 %.not2123.i, label %ir_emit_N.exit.thread, label %ir_emit_N.exit

ir_emit_N.exit.thread:                            ; preds = %._crit_edge.i
  %51 = getelementptr inbounds i8, ptr %0, i64 248
  %52 = load i32, ptr %51, align 8
  %53 = load ptr, ptr %0, align 8
  %54 = getelementptr inbounds %struct._ir_insn, ptr %53, i64 %46, i32 0, i32 1
  store i32 %52, ptr %54, align 4
  br label %.loopexit

ir_emit_N.exit:                                   ; preds = %._crit_edge.i
  %55 = or i32 %17, 3
  %56 = shl nsw i64 %46, 4
  %57 = or disjoint i64 %56, 4
  %scevgep.i = getelementptr i8, ptr %44, i64 %57
  %58 = zext nneg i32 %55 to i64
  %59 = shl nuw nsw i64 %58, 2
  tail call void @llvm.memset.p0.i64(ptr noundef nonnull align 4 dereferenceable(1) %scevgep.i, i8 0, i64 %59, i1 false)
  %60 = getelementptr inbounds i8, ptr %0, i64 248
  %61 = load i32, ptr %60, align 8
  %62 = load ptr, ptr %0, align 8
  %63 = getelementptr inbounds %struct._ir_insn, ptr %62, i64 %46, i32 0, i32 1
  store i32 %61, ptr %63, align 4
  %64 = icmp sgt i32 %2, 0
  br i1 %64, label %.lr.ph36.preheader, label %.loopexit

.lr.ph36.preheader:                               ; preds = %ir_emit_N.exit
  %wide.trip.count41 = zext nneg i32 %2 to i64
  br label %.lr.ph36

.lr.ph36:                                         ; preds = %.lr.ph36.preheader, %.lr.ph36
  %indvars.iv38 = phi i64 [ 0, %.lr.ph36.preheader ], [ %indvars.iv.next39, %.lr.ph36 ]
  %65 = getelementptr inbounds i32, ptr %3, i64 %indvars.iv38
  %66 = load i32, ptr %65, align 4
  %67 = load ptr, ptr %0, align 8
  %68 = getelementptr inbounds %struct._ir_insn, ptr %67, i64 %46
  %69 = getelementptr i32, ptr %68, i64 %indvars.iv38
  %70 = getelementptr i8, ptr %69, i64 8
  store i32 %66, ptr %70, align 4
  %indvars.iv.next39 = add nuw nsw i64 %indvars.iv38, 1
  %exitcond42.not = icmp eq i64 %indvars.iv.next39, %wide.trip.count41
  br i1 %exitcond42.not, label %.loopexit, label %.lr.ph36

.loopexit:                                        ; preds = %11, %.lr.ph36, %4, %ir_emit_N.exit.thread, %ir_emit_N.exit, %._crit_edge
  %.028 = phi i32 [ %6, %._crit_edge ], [ %19, %ir_emit_N.exit ], [ %19, %ir_emit_N.exit.thread ], [ %6, %4 ], [ %19, %.lr.ph36 ], [ %6, %11 ]
  ret i32 %.028
}